target datalayout = "e-m:e-p270:32:32-p271:32:32-p272:64:64-i64:64-i128:128-f80:128-n8:16:32:64-S128"
target triple = "x86_64-pc-linux-gnu"

%struct.pseudo_merge_map = type { ptr, i64, i64, ptr, ptr, i64 }
%struct.pseudo_merge = type { ptr, ptr, i64, i64, i8 }

@.str.3 = private unnamed_addr constant [15 x i8] c"pseudo-merge.c\00", align 1
@.str.4 = private unnamed_addr constant [40 x i8] c"cannot use unloaded pseudo-merge bitmap\00", align 1

; Function Attrs: nounwind uwtable
define dso_local ptr @pseudo_merge_bitmap(ptr noundef %0, ptr noundef %1) #0 {
  %3 = alloca ptr, align 8
  %4 = alloca ptr, align 8
  %5 = alloca i64, align 8
  store ptr %0, ptr %3, align 8, !tbaa !126
  store ptr %1, ptr %4, align 8, !tbaa !136
  %6 = load ptr, ptr %4, align 8, !tbaa !136
  %7 = getelementptr inbounds nuw %struct.pseudo_merge, ptr %6, i32 0, i32 4
  %8 = load i8, ptr %7, align 8
  %9 = lshr i8 %8, 1
  %10 = and i8 %9, 1
  %11 = zext i8 %10 to i32
  %12 = icmp ne i32 %11, 0
  br i1 %12, label %14, label %13

13:                                               ; preds = %2
  call void (ptr, i32, ptr, ...) @BUG_fl(ptr noundef @.str.3, i32 noundef 526, ptr noundef @.str.4) #11
  unreachable

14:                                               ; preds = %2
  %15 = load ptr, ptr %4, align 8, !tbaa !136
  %16 = getelementptr inbounds nuw %struct.pseudo_merge, ptr %15, i32 0, i32 4
  %17 = load i8, ptr %16, align 8
  %18 = lshr i8 %17, 2
  %19 = and i8 %18, 1
  %20 = zext i8 %19 to i32
  %21 = icmp ne i32 %20, 0
  br i1 %21, label %40, label %22

22:                                               ; preds = %14
  call void @llvm.lifetime.start.p0(i64 8, ptr %5) #10
  %23 = load ptr, ptr %4, align 8, !tbaa !136
  %24 = getelementptr inbounds nuw %struct.pseudo_merge, ptr %23, i32 0, i32 3
  %25 = load i64, ptr %24, align 8, !tbaa !137
  store i64 %25, ptr %5, align 8, !tbaa !36
  %26 = load ptr, ptr %3, align 8, !tbaa !126
  %27 = getelementptr inbounds nuw %struct.pseudo_merge_map, ptr %26, i32 0, i32 3
  %28 = load ptr, ptr %27, align 8, !tbaa !138
  %29 = load ptr, ptr %3, align 8, !tbaa !126
  %30 = getelementptr inbounds nuw %struct.pseudo_merge_map, ptr %29, i32 0, i32 5
  %31 = load i64, ptr %30, align 8, !tbaa !139
  %32 = call ptr @read_bitmap(ptr noundef %28, i64 noundef %31, ptr noundef %5)
  %33 = load ptr, ptr %4, align 8, !tbaa !136
  %34 = getelementptr inbounds nuw %struct.pseudo_merge, ptr %33, i32 0, i32 1
  store ptr %32, ptr %34, align 8, !tbaa !134
  %35 = load ptr, ptr %4, align 8, !tbaa !136
  %36 = getelementptr inbounds nuw %struct.pseudo_merge, ptr %35, i32 0, i32 4
  %37 = load i8, ptr %36, align 8
  %38 = and i8 %37, -5
  %39 = or i8 %38, 4
  store i8 %39, ptr %36, align 8
  call void @llvm.lifetime.end.p0(i64 8, ptr %5) #10
  br label %40

40:                                               ; preds = %22, %14
  %41 = load ptr, ptr %4, align 8, !tbaa !136
  %42 = getelementptr inbounds nuw %struct.pseudo_merge, ptr %41, i32 0, i32 1
  %43 = load ptr, ptr %42, align 8, !tbaa !134
  ret ptr %43
}