; Function Attrs: nounwind uwtable
define dso_local ptr @pseudo_merge_bitmap(ptr noundef readonly captures(none) %0, ptr noundef captures(none) %1) local_unnamed_addr #0 {
  %3 = alloca i64, align 8
  %4 = getelementptr inbounds nuw i8, ptr %1, i64 32
  %5 = load i8, ptr %4, align 8
  %6 = and i8 %5, 2
  %.not = icmp eq i8 %6, 0
  br i1 %.not, label %7, label %8

7:                                                ; preds = %2
  tail call void (ptr, i32, ptr, ...) @BUG_fl(ptr noundef nonnull @.str.3, i32 noundef 526, ptr noundef nonnull @.str.4) #16
  unreachable

8:                                                ; preds = %2
  %9 = and i8 %5, 4
  %.not8 = icmp eq i8 %9, 0
  br i1 %.not8, label %10, label %._crit_edge

._crit_edge:                                      ; preds = %8
  %.phi.trans.insert = getelementptr inbounds nuw i8, ptr %1, i64 8
  %.pre = load ptr, ptr %.phi.trans.insert, align 8, !tbaa !108
  br label %21

10:                                               ; preds = %8
  call void @llvm.lifetime.start.p0(i64 8, ptr nonnull %3) #15
  %11 = getelementptr inbounds nuw i8, ptr %1, i64 24
  %12 = load i64, ptr %11, align 8, !tbaa !110
  store i64 %12, ptr %3, align 8, !tbaa !111
  %13 = getelementptr inbounds nuw i8, ptr %0, i64 24
  %14 = load ptr, ptr %13, align 8, !tbaa !112
  %15 = getelementptr inbounds nuw i8, ptr %0, i64 40
  %16 = load i64, ptr %15, align 8, !tbaa !113
  %17 = call ptr @read_bitmap(ptr noundef %14, i64 noundef %16, ptr noundef nonnull %3) #15
  %18 = getelementptr inbounds nuw i8, ptr %1, i64 8
  store ptr %17, ptr %18, align 8, !tbaa !108
  %19 = load i8, ptr %4, align 8
  %20 = or i8 %19, 4
  store i8 %20, ptr %4, align 8
  call void @llvm.lifetime.end.p0(i64 8, ptr nonnull %3) #15
  br label %21

21:                                               ; preds = %._crit_edge, %10
  %22 = phi ptr [ %.pre, %._crit_edge ], [ %17, %10 ]
  ret ptr %22
}